target datalayout = "e-m:e-p270:32:32-p271:32:32-p272:64:64-i64:64-i128:128-f80:128-n8:16:32:64-S128"
target triple = "x86_64-pc-linux-gnu"

%struct._php_stream = type { ptr, ptr, %struct._php_stream_filter_chain, %struct._php_stream_filter_chain, ptr, ptr, %struct._zval_struct, i16, [16 x i8], i32, ptr, ptr, ptr, ptr, i64, ptr, i64, i64, i64, i64, ptr }
%struct._php_stream_filter_chain = type { ptr, ptr, ptr }
%struct._zval_struct = type { %union._zend_value, %union.anon, %union.anon.2 }
%union._zend_value = type { i64 }
%union.anon = type { i32 }
%union.anon.2 = type { i32 }
%struct.php_stdio_stream_data = type { ptr, i32, i32, i32, ptr, ptr, i64, %struct.stat }
%struct.stat = type { i64, i64, i64, i32, i32, i32, i32, i64, i64, i64, i64, %struct.timespec, %struct.timespec, %struct.timespec, [3 x i64] }
%struct.timespec = type { i64, i64 }

@.str.9 = private unnamed_addr constant [43 x i8] c"Write of %zu bytes failed with errno=%d %s\00", align 1

; Function Attrs: nounwind uwtable
define internal i64 @php_stdiop_write(ptr noundef %0, ptr noundef %1, i64 noundef %2) #0 {
  %4 = alloca i64, align 8
  %5 = alloca ptr, align 8
  %6 = alloca ptr, align 8
  %7 = alloca i64, align 8
  %8 = alloca ptr, align 8
  %9 = alloca i64, align 8
  %10 = alloca i32, align 4
  store ptr %0, ptr %5, align 8, !tbaa !18
  store ptr %1, ptr %6, align 8, !tbaa !4
  store i64 %2, ptr %7, align 8, !tbaa !52
  call void @llvm.lifetime.start.p0(i64 8, ptr %8) #13
  %11 = load ptr, ptr %5, align 8, !tbaa !18
  %12 = getelementptr inbounds nuw %struct._php_stream, ptr %11, i32 0, i32 1
  %13 = load ptr, ptr %12, align 8, !tbaa !20
  store ptr %13, ptr %8, align 8, !tbaa !31
  %14 = load ptr, ptr %8, align 8, !tbaa !31
  %15 = getelementptr inbounds nuw %struct.php_stdio_stream_data, ptr %14, i32 0, i32 1
  %16 = load i32, ptr %15, align 8, !tbaa !43
  %17 = icmp sge i32 %16, 0
  br i1 %17, label %18, label %55

18:                                               ; preds = %3
  call void @llvm.lifetime.start.p0(i64 8, ptr %9) #13
  %19 = load ptr, ptr %8, align 8, !tbaa !31
  %20 = getelementptr inbounds nuw %struct.php_stdio_stream_data, ptr %19, i32 0, i32 1
  %21 = load i32, ptr %20, align 8, !tbaa !43
  %22 = load ptr, ptr %6, align 8, !tbaa !4
  %23 = load i64, ptr %7, align 8, !tbaa !52
  %24 = call i64 @write(i32 noundef %21, ptr noundef %22, i64 noundef %23)
  store i64 %24, ptr %9, align 8, !tbaa !52
  %25 = load i64, ptr %9, align 8, !tbaa !52
  %26 = icmp slt i64 %25, 0
  br i1 %26, label %27, label %52

27:                                               ; preds = %18
  %28 = call ptr @__errno_location() #16
  %29 = load i32, ptr %28, align 4, !tbaa !12
  %30 = icmp eq i32 %29, 11
  br i1 %30, label %31, label %32

31:                                               ; preds = %27
  store i64 0, ptr %4, align 8
  store i32 1, ptr %10, align 4
  br label %54

32:                                               ; preds = %27
  %33 = call ptr @__errno_location() #16
  %34 = load i32, ptr %33, align 4, !tbaa !12
  %35 = icmp eq i32 %34, 4
  br i1 %35, label %36, label %38

36:                                               ; preds = %32
  %37 = load i64, ptr %9, align 8, !tbaa !52
  store i64 %37, ptr %4, align 8
  store i32 1, ptr %10, align 4
  br label %54

38:                                               ; preds = %32
  %39 = load ptr, ptr %5, align 8, !tbaa !18
  %40 = getelementptr inbounds nuw %struct._php_stream, ptr %39, i32 0, i32 9
  %41 = load i32, ptr %40, align 4, !tbaa !46
  %42 = and i32 %41, 256
  %43 = icmp ne i32 %42, 0
  br i1 %43, label %51, label %44

44:                                               ; preds = %38
  %45 = load i64, ptr %7, align 8, !tbaa !52
  %46 = call ptr @__errno_location() #16
  %47 = load i32, ptr %46, align 4, !tbaa !12
  %48 = call ptr @__errno_location() #16
  %49 = load i32, ptr %48, align 4, !tbaa !12
  %50 = call ptr @strerror(i32 noundef %49) #13
  call void (ptr, i32, ptr, ...) @php_error_docref(ptr noundef null, i32 noundef 8, ptr noundef @.str.9, i64 noundef %45, i32 noundef %47, ptr noundef %50)
  br label %51

51:                                               ; preds = %44, %38
  br label %52

52:                                               ; preds = %51, %18
  %53 = load i64, ptr %9, align 8, !tbaa !52
  store i64 %53, ptr %4, align 8
  store i32 1, ptr %10, align 4
  br label %54

54:                                               ; preds = %52, %36, %31
  call void @llvm.lifetime.end.p0(i64 8, ptr %9) #13
  br label %62

55:                                               ; preds = %3
  %56 = load ptr, ptr %6, align 8, !tbaa !4
  %57 = load i64, ptr %7, align 8, !tbaa !52
  %58 = load ptr, ptr %8, align 8, !tbaa !31
  %59 = getelementptr inbounds nuw %struct.php_stdio_stream_data, ptr %58, i32 0, i32 0
  %60 = load ptr, ptr %59, align 8, !tbaa !42
  %61 = call i64 @fwrite(ptr noundef %56, i64 noundef 1, i64 noundef %57, ptr noundef %60)
  store i64 %61, ptr %4, align 8
  store i32 1, ptr %10, align 4
  br label %62

62:                                               ; preds = %55, %54
  call void @llvm.lifetime.end.p0(i64 8, ptr %8) #13
  %63 = load i64, ptr %4, align 8
  ret i64 %63
}