; Function Attrs: nounwind uwtable
define internal noundef i64 @php_stdiop_write(ptr noundef readonly captures(none) %0, ptr noundef captures(none) %1, i64 noundef %2) #3 {
  %4 = getelementptr inbounds nuw i8, ptr %0, i64 8
  %5 = load ptr, ptr %4, align 8, !tbaa !20
  %6 = getelementptr inbounds nuw i8, ptr %5, i64 8
  %7 = load i32, ptr %6, align 8, !tbaa !19
  %8 = icmp sgt i32 %7, -1
  br i1 %8, label %9, label %22

9:                                                ; preds = %3
  %10 = tail call i64 @write(i32 noundef %7, ptr noundef %1, i64 noundef %2) #17
  %11 = icmp slt i64 %10, 0
  br i1 %11, label %12, label %25

12:                                               ; preds = %9
  %13 = tail call ptr @__errno_location() #19
  %14 = load i32, ptr %13, align 4, !tbaa !7
  switch i32 %14, label %16 [
    i32 11, label %25
    i32 4, label %15
  ]

15:                                               ; preds = %12
  br label %25

16:                                               ; preds = %12
  %17 = getelementptr inbounds nuw i8, ptr %0, i64 116
  %18 = load i32, ptr %17, align 4, !tbaa !38
  %19 = and i32 %18, 256
  %.not = icmp eq i32 %19, 0
  br i1 %.not, label %20, label %25

20:                                               ; preds = %16
  %21 = tail call ptr @strerror(i32 noundef %14) #17
  tail call void (ptr, i32, ptr, ...) @php_error_docref(ptr noundef null, i32 noundef 8, ptr noundef nonnull @.str.9, i64 noundef %2, i32 noundef %14, ptr noundef %21) #17
  br label %25

22:                                               ; preds = %3
  %23 = load ptr, ptr %5, align 8, !tbaa !36
  %24 = tail call i64 @fwrite(ptr noundef %1, i64 noundef 1, i64 noundef %2, ptr noundef %23)
  br label %25

25:                                               ; preds = %15, %12, %16, %20, %9, %22
  %.1 = phi i64 [ %24, %22 ], [ %10, %15 ], [ 0, %12 ], [ %10, %16 ], [ %10, %20 ], [ %10, %9 ]
  ret i64 %.1
}